target datalayout = "e-m:e-p270:32:32-p271:32:32-p272:64:64-i64:64-i128:128-f80:128-n8:16:32:64-S128"
target triple = "x86_64-pc-linux-gnu"

@.str = private unnamed_addr constant [23 x i8] c"invalid UTF-8 sequence\00", align 1

; Function Attrs: nounwind uwtable
define internal zeroext i1 @in_range(ptr noundef %0, i32 noundef %1) #0 {
  %3 = alloca i1, align 1
  %4 = alloca ptr, align 8
  %5 = alloca i32, align 4
  %6 = alloca i32, align 4
  %7 = alloca i32, align 4
  store ptr %0, ptr %4, align 8, !tbaa !19
  store i32 %1, ptr %5, align 4, !tbaa !12
  call void @llvm.lifetime.start.p0(i64 4, ptr %6) #3
  store i32 0, ptr %6, align 4, !tbaa !12
  br label %8

8:                                                ; preds = %35, %2
  %9 = load ptr, ptr %4, align 8, !tbaa !19
  %10 = load i32, ptr %6, align 4, !tbaa !12
  %11 = sext i32 %10 to i64
  %12 = getelementptr inbounds i32, ptr %9, i64 %11
  %13 = load i32, ptr %12, align 4, !tbaa !12
  %14 = icmp ne i32 %13, -1
  br i1 %14, label %16, label %15

15:                                               ; preds = %8
  store i32 2, ptr %7, align 4
  br label %38

16:                                               ; preds = %8
  %17 = load ptr, ptr %4, align 8, !tbaa !19
  %18 = load i32, ptr %6, align 4, !tbaa !12
  %19 = sext i32 %18 to i64
  %20 = getelementptr inbounds i32, ptr %17, i64 %19
  %21 = load i32, ptr %20, align 4, !tbaa !12
  %22 = load i32, ptr %5, align 4, !tbaa !12
  %23 = icmp ule i32 %21, %22
  br i1 %23, label %24, label %34

24:                                               ; preds = %16
  %25 = load i32, ptr %5, align 4, !tbaa !12
  %26 = load ptr, ptr %4, align 8, !tbaa !19
  %27 = load i32, ptr %6, align 4, !tbaa !12
  %28 = add nsw i32 %27, 1
  %29 = sext i32 %28 to i64
  %30 = getelementptr inbounds i32, ptr %26, i64 %29
  %31 = load i32, ptr %30, align 4, !tbaa !12
  %32 = icmp ule i32 %25, %31
  br i1 %32, label %33, label %34

33:                                               ; preds = %24
  store i1 true, ptr %3, align 1
  store i32 1, ptr %7, align 4
  br label %38

34:                                               ; preds = %24, %16
  br label %35

35:                                               ; preds = %34
  %36 = load i32, ptr %6, align 4, !tbaa !12
  %37 = add nsw i32 %36, 2
  store i32 %37, ptr %6, align 4, !tbaa !12
  br label %8, !llvm.loop !21

38:                                               ; preds = %33, %15
  call void @llvm.lifetime.end.p0(i64 4, ptr %6) #3
  %39 = load i32, ptr %7, align 4
  switch i32 %39, label %43 [
    i32 2, label %40
    i32 1, label %41
  ]

40:                                               ; preds = %38
  store i1 false, ptr %3, align 1
  br label %41

41:                                               ; preds = %40, %38
  %42 = load i1, ptr %3, align 1
  ret i1 %42

43:                                               ; preds = %38
  unreachable
}

; Function Attrs: nounwind uwtable
define internal i32 @char_width(i32 noundef %0) #0 {
  %2 = alloca i32, align 4
  %3 = alloca i32, align 4
  store i32 %0, ptr %3, align 4, !tbaa !12
  %4 = load i32, ptr %3, align 4, !tbaa !12
  %5 = call zeroext i1 @in_range(ptr noundef @char_width.range1, i32 noundef %4)
  br i1 %5, label %6, label %7

6:                                                ; preds = %1
  store i32 0, ptr %2, align 4
  br label %12

7:                                                ; preds = %1
  %8 = load i32, ptr %3, align 4, !tbaa !12
  %9 = call zeroext i1 @in_range(ptr noundef @char_width.range2, i32 noundef %8)
  br i1 %9, label %10, label %11

10:                                               ; preds = %7
  store i32 2, ptr %2, align 4
  br label %12

11:                                               ; preds = %7
  store i32 1, ptr %2, align 4
  br label %12

12:                                               ; preds = %11, %10, %6
  %13 = load i32, ptr %2, align 4
  ret i32 %13
}

; Function Attrs: nounwind uwtable
define dso_local i32 @decode_utf8(ptr noundef %0, ptr noundef %1) #0 {
  %3 = alloca i32, align 4
  %4 = alloca ptr, align 8
  %5 = alloca ptr, align 8
  %6 = alloca ptr, align 8
  %7 = alloca i32, align 4
  %8 = alloca i32, align 4
  %9 = alloca i32, align 4
  store ptr %0, ptr %4, align 8, !tbaa !15
  store ptr %1, ptr %5, align 8, !tbaa !7
  %10 = load ptr, ptr %5, align 8, !tbaa !7
  %11 = load i8, ptr %10, align 1, !tbaa !14
  %12 = zext i8 %11 to i32
  %13 = icmp slt i32 %12, 128
  br i1 %13, label %14, label %21

14:                                               ; preds = %2
  %15 = load ptr, ptr %5, align 8, !tbaa !7
  %16 = getelementptr inbounds i8, ptr %15, i64 1
  %17 = load ptr, ptr %4, align 8, !tbaa !15
  store ptr %16, ptr %17, align 8, !tbaa !7
  %18 = load ptr, ptr %5, align 8, !tbaa !7
  %19 = load i8, ptr %18, align 1, !tbaa !14
  %20 = sext i8 %19 to i32
  store i32 %20, ptr %3, align 4
  br label %94

21:                                               ; preds = %2
  call void @llvm.lifetime.start.p0(i64 8, ptr %6) #3
  %22 = load ptr, ptr %5, align 8, !tbaa !7
  store ptr %22, ptr %6, align 8, !tbaa !7
  call void @llvm.lifetime.start.p0(i64 4, ptr %7) #3
  call void @llvm.lifetime.start.p0(i64 4, ptr %8) #3
  %23 = load ptr, ptr %5, align 8, !tbaa !7
  %24 = load i8, ptr %23, align 1, !tbaa !14
  %25 = zext i8 %24 to i32
  %26 = icmp sge i32 %25, 240
  br i1 %26, label %27, label %32

27:                                               ; preds = %21
  store i32 4, ptr %7, align 4, !tbaa !12
  %28 = load ptr, ptr %5, align 8, !tbaa !7
  %29 = load i8, ptr %28, align 1, !tbaa !14
  %30 = sext i8 %29 to i32
  %31 = and i32 %30, 7
  store i32 %31, ptr %8, align 4, !tbaa !12
  br label %56

32:                                               ; preds = %21
  %33 = load ptr, ptr %5, align 8, !tbaa !7
  %34 = load i8, ptr %33, align 1, !tbaa !14
  %35 = zext i8 %34 to i32
  %36 = icmp sge i32 %35, 224
  br i1 %36, label %37, label %42

37:                                               ; preds = %32
  store i32 3, ptr %7, align 4, !tbaa !12
  %38 = load ptr, ptr %5, align 8, !tbaa !7
  %39 = load i8, ptr %38, align 1, !tbaa !14
  %40 = sext i8 %39 to i32
  %41 = and i32 %40, 15
  store i32 %41, ptr %8, align 4, !tbaa !12
  br label %55

42:                                               ; preds = %32
  %43 = load ptr, ptr %5, align 8, !tbaa !7
  %44 = load i8, ptr %43, align 1, !tbaa !14
  %45 = zext i8 %44 to i32
  %46 = icmp sge i32 %45, 192
  br i1 %46, label %47, label %52

47:                                               ; preds = %42
  store i32 2, ptr %7, align 4, !tbaa !12
  %48 = load ptr, ptr %5, align 8, !tbaa !7
  %49 = load i8, ptr %48, align 1, !tbaa !14
  %50 = sext i8 %49 to i32
  %51 = and i32 %50, 31
  store i32 %51, ptr %8, align 4, !tbaa !12
  br label %54

52:                                               ; preds = %42
  %53 = load ptr, ptr %6, align 8, !tbaa !7
  call void (ptr, ptr, ...) @error_at(ptr noundef %53, ptr noundef @.str) #4
  unreachable

54:                                               ; preds = %47
  br label %55

55:                                               ; preds = %54, %37
  br label %56

56:                                               ; preds = %55, %27
  call void @llvm.lifetime.start.p0(i64 4, ptr %9) #3
  store i32 1, ptr %9, align 4, !tbaa !12
  br label %57

57:                                               ; preds = %84, %56
  %58 = load i32, ptr %9, align 4, !tbaa !12
  %59 = load i32, ptr %7, align 4, !tbaa !12
  %60 = icmp slt i32 %58, %59
  br i1 %60, label %62, label %61

61:                                               ; preds = %57
  call void @llvm.lifetime.end.p0(i64 4, ptr %9) #3
  br label %87

62:                                               ; preds = %57
  %63 = load ptr, ptr %5, align 8, !tbaa !7
  %64 = load i32, ptr %9, align 4, !tbaa !12
  %65 = sext i32 %64 to i64
  %66 = getelementptr inbounds i8, ptr %63, i64 %65
  %67 = load i8, ptr %66, align 1, !tbaa !14
  %68 = zext i8 %67 to i32
  %69 = ashr i32 %68, 6
  %70 = icmp ne i32 %69, 2
  br i1 %70, label %71, label %73

71:                                               ; preds = %62
  %72 = load ptr, ptr %6, align 8, !tbaa !7
  call void (ptr, ptr, ...) @error_at(ptr noundef %72, ptr noundef @.str) #4
  unreachable

73:                                               ; preds = %62
  %74 = load i32, ptr %8, align 4, !tbaa !12
  %75 = shl i32 %74, 6
  %76 = load ptr, ptr %5, align 8, !tbaa !7
  %77 = load i32, ptr %9, align 4, !tbaa !12
  %78 = sext i32 %77 to i64
  %79 = getelementptr inbounds i8, ptr %76, i64 %78
  %80 = load i8, ptr %79, align 1, !tbaa !14
  %81 = sext i8 %80 to i32
  %82 = and i32 %81, 63
  %83 = or i32 %75, %82
  store i32 %83, ptr %8, align 4, !tbaa !12
  br label %84

84:                                               ; preds = %73
  %85 = load i32, ptr %9, align 4, !tbaa !12
  %86 = add nsw i32 %85, 1
  store i32 %86, ptr %9, align 4, !tbaa !12
  br label %57, !llvm.loop !17

87:                                               ; preds = %61
  %88 = load ptr, ptr %5, align 8, !tbaa !7
  %89 = load i32, ptr %7, align 4, !tbaa !12
  %90 = sext i32 %89 to i64
  %91 = getelementptr inbounds i8, ptr %88, i64 %90
  %92 = load ptr, ptr %4, align 8, !tbaa !15
  store ptr %91, ptr %92, align 8, !tbaa !7
  %93 = load i32, ptr %8, align 4, !tbaa !12
  store i32 %93, ptr %3, align 4
  call void @llvm.lifetime.end.p0(i64 4, ptr %8) #3
  call void @llvm.lifetime.end.p0(i64 4, ptr %7) #3
  call void @llvm.lifetime.end.p0(i64 8, ptr %6) #3
  br label %94

94:                                               ; preds = %87, %14
  %95 = load i32, ptr %3, align 4
  ret i32 %95
}

; Function Attrs: nounwind uwtable
define dso_local i32 @display_width(ptr noundef %0, i32 noundef %1) #0 {
  %3 = alloca ptr, align 8
  %4 = alloca i32, align 4
  %5 = alloca ptr, align 8
  %6 = alloca i32, align 4
  %7 = alloca i32, align 4
  store ptr %0, ptr %3, align 8, !tbaa !7
  store i32 %1, ptr %4, align 4, !tbaa !12
  call void @llvm.lifetime.start.p0(i64 8, ptr %5) #3
  %8 = load ptr, ptr %3, align 8, !tbaa !7
  store ptr %8, ptr %5, align 8, !tbaa !7
  call void @llvm.lifetime.start.p0(i64 4, ptr %6) #3
  store i32 0, ptr %6, align 4, !tbaa !12
  br label %9

9:                                                ; preds = %18, %2
  %10 = load ptr, ptr %3, align 8, !tbaa !7
  %11 = load ptr, ptr %5, align 8, !tbaa !7
  %12 = ptrtoint ptr %10 to i64
  %13 = ptrtoint ptr %11 to i64
  %14 = sub i64 %12, %13
  %15 = load i32, ptr %4, align 4, !tbaa !12
  %16 = sext i32 %15 to i64
  %17 = icmp slt i64 %14, %16
  br i1 %17, label %18, label %25

18:                                               ; preds = %9
  call void @llvm.lifetime.start.p0(i64 4, ptr %7) #3
  %19 = load ptr, ptr %3, align 8, !tbaa !7
  %20 = call i32 @decode_utf8(ptr noundef %3, ptr noundef %19)
  store i32 %20, ptr %7, align 4, !tbaa !12
  %21 = load i32, ptr %7, align 4, !tbaa !12
  %22 = call i32 @char_width(i32 noundef %21)
  %23 = load i32, ptr %6, align 4, !tbaa !12
  %24 = add nsw i32 %23, %22
  store i32 %24, ptr %6, align 4, !tbaa !12
  call void @llvm.lifetime.end.p0(i64 4, ptr %7) #3
  br label %9, !llvm.loop !22

25:                                               ; preds = %9
  %26 = load i32, ptr %6, align 4, !tbaa !12
  call void @llvm.lifetime.end.p0(i64 4, ptr %6) #3
  call void @llvm.lifetime.end.p0(i64 8, ptr %5) #3
  ret i32 %26
}