; Function Attrs: nounwind uwtable
define dso_local i32 @display_width(ptr noundef %0, i32 noundef %1) local_unnamed_addr #1 {
  %3 = ptrtoint ptr %0 to i64
  %4 = sext i32 %1 to i64
  %5 = icmp sgt i32 %1, 0
  br i1 %5, label %.lr.ph.split.split, label %._crit_edge

.lr.ph.split.split:                               ; preds = %2, %char_width.exit
  %.011 = phi i32 [ %45, %char_width.exit ], [ 0, %2 ]
  %.0410 = phi ptr [ %.1, %char_width.exit ], [ %0, %2 ]
  %6 = load i8, ptr %.0410, align 1, !tbaa !7
  %7 = icmp sgt i8 %6, -1
  br i1 %7, label %8, label %11

8:                                                ; preds = %.lr.ph.split.split
  %9 = getelementptr inbounds nuw i8, ptr %.0410, i64 1
  %10 = zext nneg i8 %6 to i32
  br label %decode_utf8.exit

11:                                               ; preds = %.lr.ph.split.split
  %12 = icmp samesign ugt i8 %6, -17
  br i1 %12, label %17, label %13

13:                                               ; preds = %11
  %14 = icmp samesign ugt i8 %6, -33
  br i1 %14, label %17, label %15

15:                                               ; preds = %13
  %16 = icmp samesign ugt i8 %6, -65
  br i1 %16, label %17, label %.split.us

.split.us:                                        ; preds = %15
  tail call void (ptr, ptr, ...) @error_at(ptr noundef nonnull %.0410, ptr noundef nonnull @.str) #4
  unreachable

17:                                               ; preds = %15, %13, %11
  %.sink.i = phi i8 [ 7, %11 ], [ 15, %13 ], [ 31, %15 ]
  %.026.i = phi i64 [ 4, %11 ], [ 3, %13 ], [ 2, %15 ]
  %18 = and i8 %.sink.i, %6
  %.025.i = zext nneg i8 %18 to i32
  br label %21

19:                                               ; preds = %24
  %20 = getelementptr inbounds nuw i8, ptr %.0410, i64 %.026.i
  br label %decode_utf8.exit

21:                                               ; preds = %24, %17
  %indvars.iv.i = phi i64 [ 1, %17 ], [ %indvars.iv.next.i, %24 ]
  %.130.i = phi i32 [ %.025.i, %17 ], [ %28, %24 ]
  %22 = getelementptr inbounds nuw i8, ptr %.0410, i64 %indvars.iv.i
  %23 = load i8, ptr %22, align 1, !tbaa !7
  %.not.i = icmp slt i8 %23, -64
  br i1 %.not.i, label %24, label %.split13.us

.split13.us:                                      ; preds = %21
  tail call void (ptr, ptr, ...) @error_at(ptr noundef nonnull %.0410, ptr noundef nonnull @.str) #4
  unreachable

24:                                               ; preds = %21
  %25 = shl i32 %.130.i, 6
  %26 = and i8 %23, 63
  %27 = zext nneg i8 %26 to i32
  %28 = or disjoint i32 %25, %27
  %indvars.iv.next.i = add nuw nsw i64 %indvars.iv.i, 1
  %exitcond.not.i = icmp eq i64 %indvars.iv.next.i, %.026.i
  br i1 %exitcond.not.i, label %19, label %21, !llvm.loop !13

decode_utf8.exit:                                 ; preds = %8, %19
  %.1 = phi ptr [ %9, %8 ], [ %20, %19 ]
  %.027.i = phi i32 [ %10, %8 ], [ %28, %19 ]
  br label %.lr.ph.i.i

.lr.ph.i.i:                                       ; preds = %decode_utf8.exit, %34
  %indvars.iv.i.i = phi i64 [ %indvars.iv.next.i.i, %34 ], [ 0, %decode_utf8.exit ]
  %29 = phi i32 [ %36, %34 ], [ 0, %decode_utf8.exit ]
  %.not14.i.i = icmp ugt i32 %29, %.027.i
  br i1 %.not14.i.i, label %34, label %30

30:                                               ; preds = %.lr.ph.i.i
  %31 = or disjoint i64 %indvars.iv.i.i, 1
  %32 = getelementptr inbounds nuw i32, ptr @char_width.range1, i64 %31
  %33 = load i32, ptr %32, align 4, !tbaa !15
  %.not15.i.i = icmp ugt i32 %.027.i, %33
  br i1 %.not15.i.i, label %34, label %char_width.exit

34:                                               ; preds = %30, %.lr.ph.i.i
  %indvars.iv.next.i.i = add nuw nsw i64 %indvars.iv.i.i, 2
  %35 = getelementptr inbounds nuw i32, ptr @char_width.range1, i64 %indvars.iv.next.i.i
  %36 = load i32, ptr %35, align 8, !tbaa !15
  %.not.not.i.i = icmp eq i32 %36, -1
  br i1 %.not.not.i.i, label %.lr.ph.i4.i, label %.lr.ph.i.i, !llvm.loop !17

.lr.ph.i4.i:                                      ; preds = %34, %42
  %indvars.iv.i5.i = phi i64 [ %indvars.iv.next.i9.i, %42 ], [ 0, %34 ]
  %37 = phi i32 [ %44, %42 ], [ 4352, %34 ]
  %.not14.i6.i = icmp ugt i32 %37, %.027.i
  br i1 %.not14.i6.i, label %42, label %38

38:                                               ; preds = %.lr.ph.i4.i
  %39 = or disjoint i64 %indvars.iv.i5.i, 1
  %40 = getelementptr inbounds nuw i32, ptr @char_width.range2, i64 %39
  %41 = load i32, ptr %40, align 4, !tbaa !15
  %.not15.i7.i = icmp ugt i32 %.027.i, %41
  br i1 %.not15.i7.i, label %42, label %char_width.exit

42:                                               ; preds = %38, %.lr.ph.i4.i
  %indvars.iv.next.i9.i = add nuw nsw i64 %indvars.iv.i5.i, 2
  %43 = getelementptr inbounds nuw i32, ptr @char_width.range2, i64 %indvars.iv.next.i9.i
  %44 = load i32, ptr %43, align 8, !tbaa !15
  %.not.not.i10.i = icmp eq i32 %44, -1
  br i1 %.not.not.i10.i, label %char_width.exit, label %.lr.ph.i4.i, !llvm.loop !17

char_width.exit:                                  ; preds = %30, %38, %42
  %.0.i = phi i32 [ 2, %38 ], [ 1, %42 ], [ 0, %30 ]
  %45 = add nuw nsw i32 %.0.i, %.011
  %46 = ptrtoint ptr %.1 to i64
  %47 = sub i64 %46, %3
  %48 = icmp slt i64 %47, %4
  br i1 %48, label %.lr.ph.split.split, label %._crit_edge, !llvm.loop !18

._crit_edge:                                      ; preds = %char_width.exit, %2
  %.0.lcssa = phi i32 [ 0, %2 ], [ %45, %char_width.exit ]
  ret i32 %.0.lcssa
}